; Function Attrs: mustprogress nofree norecurse nosync nounwind willreturn memory(argmem: write) uwtable
define void @_ZN2cv9softfloatC2El(ptr nocapture noundef nonnull writeonly align 4 dereferenceable(4) %0, i64 noundef %1) unnamed_addr #0 align 2 {
  %3 = icmp slt i64 %1, 0
  %4 = tail call i64 @llvm.abs.i64(i64 %1, i1 false)
  %5 = lshr i64 %4, 32
  %.not.i.i = icmp ult i64 %4, 4294967296
  %spec.select.i.i = select i1 %.not.i.i, i8 32, i8 0
  %spec.select16.i.i = select i1 %.not.i.i, i64 %4, i64 %5
  %.0.i.i = trunc nuw i64 %spec.select16.i.i to i32
  %6 = icmp ult i64 %spec.select16.i.i, 65536
  %7 = or disjoint i8 %spec.select.i.i, 16
  %8 = shl nuw i32 %.0.i.i, 16
  %.113.i.i = select i1 %6, i8 %7, i8 %spec.select.i.i
  %.1.i.i = select i1 %6, i32 %8, i32 %.0.i.i
  %9 = icmp ult i32 %.1.i.i, 16777216
  %10 = or disjoint i8 %.113.i.i, 8
  %11 = shl nuw i32 %.1.i.i, 8
  %.214.i.i = select i1 %9, i8 %10, i8 %.113.i.i
  %.2.i.i = select i1 %9, i32 %11, i32 %.1.i.i
  %12 = lshr i32 %.2.i.i, 24
  %13 = zext nneg i32 %12 to i64
  %14 = getelementptr inbounds [256 x i8], ptr @_ZN2cvL28softfloat_countLeadingZeros8E, i64 0, i64 %13
  %15 = load i8, ptr %14, align 1, !noalias !13
  %16 = add i8 %15, %.214.i.i
  %17 = add i8 %16, -40
  %18 = sext i8 %17 to i32
  %19 = icmp sgt i8 %17, -1
  br i1 %19, label %20, label %29

20:                                               ; preds = %2
  %.not.i = icmp eq i64 %1, 0
  br i1 %.not.i, label %_ZN2cvL10i64_to_f32El.exit, label %21

21:                                               ; preds = %20
  %sh.diff.i = lshr i64 %1, 32
  %tr.sh.diff.i = trunc nuw i64 %sh.diff.i to i32
  %22 = and i32 %tr.sh.diff.i, -2147483648
  %23 = zext nneg i32 %18 to i64
  %24 = shl i64 %4, %23
  %25 = trunc i64 %24 to i32
  %reass.sub.i = or disjoint i32 %22, 1249902592
  %26 = shl nuw nsw i32 %18, 23
  %27 = sub nuw nsw i32 %reass.sub.i, %26
  %28 = add i32 %27, %25
  br label %_ZN2cvL10i64_to_f32El.exit

29:                                               ; preds = %2
  %30 = add nsw i8 %16, -33
  %31 = sext i8 %30 to i32
  %32 = icmp slt i8 %16, 33
  br i1 %32, label %33, label %42

33:                                               ; preds = %29
  %34 = sub nsw i8 33, %16
  %35 = zext nneg i8 %34 to i64
  %36 = lshr i64 %4, %35
  %notmask.i.i = shl nsw i64 -1, %35
  %37 = xor i64 %notmask.i.i, -1
  %38 = and i64 %4, %37
  %39 = icmp ne i64 %38, 0
  %40 = zext i1 %39 to i64
  %41 = or i64 %36, %40
  br label %45

42:                                               ; preds = %29
  %43 = zext nneg i32 %31 to i64
  %44 = shl i64 %4, %43
  br label %45

45:                                               ; preds = %42, %33
  %46 = phi i64 [ %41, %33 ], [ %44, %42 ]
  %47 = sub nsw i32 156, %31
  %48 = zext nneg i32 %47 to i64
  %49 = icmp ugt i32 %47, 252
  br i1 %49, label %50, label %56

50:                                               ; preds = %45
  %51 = icmp ne i8 %30, -97
  %52 = add i64 %46, -2147483584
  %53 = icmp ult i64 %52, -2147483648
  %or.cond.i.i = or i1 %51, %53
  br i1 %or.cond.i.i, label %54, label %56

54:                                               ; preds = %50
  %55 = select i1 %3, i64 4286578688, i64 2139095040
  br label %_ZN2cvL24softfloat_roundPackToF32Eblm.exit.i

56:                                               ; preds = %50, %45
  %.038.i.i = phi i64 [ %48, %45 ], [ 253, %50 ]
  %57 = add i64 %46, 64
  %58 = lshr i64 %57, 7
  %.039.i23.i = and i64 %46, 127
  %.not48.i.i = icmp eq i64 %.039.i23.i, 64
  %59 = zext i1 %.not48.i.i to i64
  %60 = xor i64 %59, -1
  %61 = and i64 %58, %60
  %.not49.i.i = icmp eq i64 %61, 0
  %62 = shl nuw nsw i64 %.038.i.i, 23
  %63 = lshr i64 %1, 32
  %64 = and i64 %63, 2147483648
  %65 = select i1 %.not49.i.i, i64 0, i64 %62
  %66 = add nuw nsw i64 %65, %64
  %67 = and i64 %66, 4286578688
  %68 = add nuw nsw i64 %67, %61
  br label %_ZN2cvL24softfloat_roundPackToF32Eblm.exit.i

_ZN2cvL24softfloat_roundPackToF32Eblm.exit.i:     ; preds = %56, %54
  %.0.i22.i = phi i64 [ %68, %56 ], [ %55, %54 ]
  %69 = trunc i64 %.0.i22.i to i32
  br label %_ZN2cvL10i64_to_f32El.exit

_ZN2cvL10i64_to_f32El.exit:                       ; preds = %_ZN2cvL24softfloat_roundPackToF32Eblm.exit.i, %21, %20
  %storemerge.i = phi i32 [ %69, %_ZN2cvL24softfloat_roundPackToF32Eblm.exit.i ], [ %28, %21 ], [ 0, %20 ]
  store i32 %storemerge.i, ptr %0, align 4
  ret void
}